Certificate:
    Data:
        Version: 3 (0x2)
        Serial Number: 4098 (0x1002)
    Signature Algorithm: md5WithRSAEncryption
        Issuer: C=US, ST=Utah, L=Salt Lake City, O=MSD, OU=Certificate Authority, CN=My Root CA/emailAddress=u6033375@gcloud.utah.edu
        Validity
            Not Before: Mar 26 17:25:54 2025 GMT
            Not After : Mar 26 17:25:54 2026 GMT
        Subject: C=US, ST=Utah, O=MSD, OU=Client, CN=myclient.local/emailAddress=u6033375@gcloud.utah.edu
        Subject Public Key Info:
            Public Key Algorithm: rsaEncryption
                RSA Public-Key: (4096 bit)
                Modulus:
                    00:c7:c7:2b:41:e9:51:44:a7:f2:9f:fc:a0:42:49:
                    5d:c5:0a:3b:74:e1:38:cd:8c:7f:d7:75:8c:be:c9:
                    14:ce:85:de:3e:63:ab:5d:c2:1a:c1:0c:80:9d:53:
                    d7:c1:ad:4a:f4:b9:19:04:31:23:93:c0:46:94:3b:
                    84:50:b5:09:4a:a9:fd:41:2e:19:11:af:f4:9e:b5:
                    7f:25:df:93:25:90:bd:f6:1a:b4:01:6d:89:bf:8c:
                    d4:98:c0:00:53:87:ba:18:a2:8d:28:57:24:d4:bc:
                    31:3c:cf:fd:f6:8a:38:db:88:dc:77:69:d2:9c:98:
                    68:06:70:fb:88:a4:00:1f:54:b1:38:57:77:d4:7c:
                    8c:77:53:a2:8b:fd:fa:f5:d3:1f:71:99:5e:8b:2f:
                    fd:bc:e6:de:52:e4:e4:31:de:c6:af:3e:e9:85:9e:
                    32:00:82:0b:32:cd:0a:28:51:05:75:19:0e:63:e6:
                    c8:f0:b5:80:e9:65:68:36:33:6e:27:bb:83:d9:bf:
                    fd:61:04:91:81:74:ab:0b:45:b8:26:e3:2b:28:70:
                    61:38:b0:ea:ac:ce:30:df:19:65:17:de:51:a6:e0:
                    b2:9b:7e:04:3f:0e:db:06:9f:32:5c:18:7b:ac:ed:
                    14:da:a5:9c:92:f3:1e:25:b7:5e:cc:31:c1:d1:c3:
                    a7:7e:a3:bc:a7:ec:f5:1d:0e:11:ef:65:44:dd:7e:
                    c7:a2:f5:31:ee:ea:77:b4:0d:07:f3:e6:a3:d4:c0:
                    0e:5d:37:74:55:88:0b:2f:ac:7e:f5:26:5c:14:ab:
                    eb:48:ab:76:7c:4b:49:cd:1e:e5:33:16:82:57:08:
                    d9:41:06:6f:ad:ee:bb:42:78:e4:e2:47:f1:25:a1:
                    36:c1:6f:6d:6d:a7:a8:8f:c6:37:a5:39:9e:93:08:
                    89:bd:1a:20:17:02:0e:d4:5f:46:2b:9d:fe:45:ea:
                    55:56:bc:c4:dd:37:df:1e:dd:f0:3c:ec:68:17:2b:
                    17:0f:b6:cb:67:ea:05:a4:d1:84:df:0d:2f:d7:c9:
                    c5:15:13:9e:cf:55:75:d8:6f:56:17:42:a5:3d:82:
                    e1:11:b4:e1:d6:84:49:0c:58:6a:17:ff:ce:50:85:
                    5c:bb:65:44:c2:71:9d:b2:86:38:8b:66:35:c4:c0:
                    ec:14:0c:89:6f:bf:3e:35:8c:8b:8e:09:5d:7d:89:
                    ff:dd:2d:56:34:54:f3:7c:6e:cf:1f:e0:7d:f7:96:
                    4c:fe:f7:96:f5:58:f5:62:f2:77:d5:2e:a4:21:a1:
                    19:f5:eb:32:53:27:91:9e:cb:aa:30:50:c8:16:02:
                    60:20:07:55:2b:b6:5c:5b:97:f3:63:4b:be:7f:0c:
                    7e:5d:ab
                Exponent: 65537 (0x10001)
        X509v3 extensions:
            X509v3 Basic Constraints: 
                CA:FALSE
            Netscape Comment: 
                OpenSSL Generated Certificate
            X509v3 Subject Key Identifier: 
                B1:27:72:F9:A4:EA:74:15:C9:34:DC:26:9F:B3:22:62:08:57:26:7E
            X509v3 Authority Key Identifier: 
                DirName:/C=US/ST=Utah/L=Salt Lake City/O=MSD/OU=Certificate Authority/CN=My Root CA/emailAddress=u6033375@gcloud.utah.edu
                serial:FD:4F:80:24:A8:F9:62:28

    Signature Algorithm: md5WithRSAEncryption
         bb:ca:05:69:1b:0d:11:d2:1e:52:95:a8:b7:67:03:08:21:1e:
         d4:6d:d8:20:e3:33:ad:a0:85:f5:ff:b1:1c:44:ab:e1:6f:c4:
         be:c6:1b:79:92:c5:8e:0c:0c:66:39:45:d2:94:40:db:18:6b:
         12:e3:cf:c8:aa:a2:bf:28:dc:6b:3f:80:0f:bd:5d:78:d4:8f:
         d6:6d:75:e1:87:68:49:68:bd:5e:80:ba:8c:27:5d:e2:b4:9c:
         ef:f2:76:80:df:56:4e:51:3f:d6:c1:c8:9d:6b:38:16:7b:2d:
         46:de:6c:42:03:bd:d3:af:76:ad:48:b2:d8:33:11:5f:60:a8:
         6d:83:db:6b:43:28:db:82:35:81:bc:e9:38:5d:a5:df:73:e9:
         3f:10:16:c0:dd:9e:72:24:bd:e7:b5:9b:8b:36:69:a1:96:21:
         be:fd:11:5e:80:3a:12:24:fc:97:c6:52:a6:7b:07:7d:e2:d1:
         a8:39:c6:92:12:c6:f6:5d:78:9e:39:cf:5b:d6:d9:8c:d5:e7:
         90:5a:27:46:5a:fd:38:ac:9b:f6:1a:ae:88:b9:43:f7:12:07:
         c2:a0:f6:06:7f:e1:7f:83:53:51:cd:6d:ad:54:fa:17:64:ed:
         dd:60:17:3e:30:9c:8e:a2:03:94:c0:5b:f1:68:f7:3f:92:8f:
         f9:2b:ec:45:9a:9c:2e:e3:8b:4a:ef:00:49:5d:5e:37:e9:4a:
         eb:b7:5b:ba:29:8a:4a:c0:2d:d9:9c:68:8c:3e:5d:2f:2f:4b:
         c2:be:a8:9e:5b:10:83:92:90:dc:b2:41:36:71:87:f9:c3:a5:
         1e:2e:1c:9a:bc:3e:23:fc:39:64:ab:74:29:96:d0:14:18:68:
         44:cc:f0:d3:bb:70:e5:18:81:2c:b4:ee:9f:46:a1:78:d7:a7:
         ac:f2:79:2d:97:0b:09:e7:6f:8f:e3:b4:e4:be:41:cc:38:bd:
         e9:ac:79:24:30:b4:db:a0:2b:5d:19:f0:2d:e1:21:d3:19:88:
         a6:29:79:c9:25:4e:64:83:85:ae:2a:29:7e:f0:98:dd:89:b9:
         17:cf:9e:fa:ad:9a:bd:f0:2e:09:dc:64:c1:7c:7c:76:c1:66:
         16:af:ef:32:b4:84:85:bf:a4:78:df:4b:31:35:32:06:77:0f:
         e1:45:00:99:fb:8a:fc:95:42:e2:84:d3:94:3d:19:6b:09:06:
         0f:00:2a:75:da:80:6e:fd:ec:9c:c1:6d:1f:2d:fa:ce:e1:3e:
         88:4f:3a:e1:33:e5:c9:c5:c5:3f:4f:c0:b3:89:cf:0d:ee:f7:
         56:32:ad:5a:bc:b5:1e:b3:3e:08:94:ca:da:fc:24:e0:28:7e:
         00:88:bd:da:66:3d:bf:fc
-----BEGIN CERTIFICATE-----
MIIGvDCCBKSgAwIBAgICEAIwDQYJKoZIhvcNAQEEBQAwgaExCzAJBgNVBAYTAlVT
MQ0wCwYDVQQIDARVdGFoMRcwFQYDVQQHDA5TYWx0IExha2UgQ2l0eTEMMAoGA1UE
CgwDTVNEMR4wHAYDVQQLDBVDZXJ0aWZpY2F0ZSBBdXRob3JpdHkxEzARBgNVBAMM
Ck15IFJvb3QgQ0ExJzAlBgkqhkiG9w0BCQEWGHU2MDMzMzc1QGdjbG91ZC51dGFo
LmVkdTAeFw0yNTAzMjYxNzI1NTRaFw0yNjAzMjYxNzI1NTRaMH0xCzAJBgNVBAYT
AlVTMQ0wCwYDVQQIDARVdGFoMQwwCgYDVQQKDANNU0QxDzANBgNVBAsMBkNsaWVu
dDEXMBUGA1UEAwwObXljbGllbnQubG9jYWwxJzAlBgkqhkiG9w0BCQEWGHU2MDMz
Mzc1QGdjbG91ZC51dGFoLmVkdTCCAiIwDQYJKoZIhvcNAQEBBQADggIPADCCAgoC
ggIBAMfHK0HpUUSn8p/8oEJJXcUKO3ThOM2Mf9d1jL7JFM6F3j5jq13CGsEMgJ1T
18GtSvS5GQQxI5PARpQ7hFC1CUqp/UEuGRGv9J61fyXfkyWQvfYatAFtib+M1JjA
AFOHuhiijShXJNS8MTzP/faKONuI3Hdp0pyYaAZw+4ikAB9UsThXd9R8jHdToov9
+vXTH3GZXosv/bzm3lLk5DHexq8+6YWeMgCCCzLNCihRBXUZDmPmyPC1gOllaDYz
bie7g9m//WEEkYF0qwtFuCbjKyhwYTiw6qzOMN8ZZRfeUabgspt+BD8O2wafMlwY
e6ztFNqlnJLzHiW3XswxwdHDp36jvKfs9R0OEe9lRN1+x6L1Me7qd7QNB/Pmo9TA
Dl03dFWICy+sfvUmXBSr60irdnxLSc0e5TMWglcI2UEGb63uu0J45OJH8SWhNsFv
bW2nqI/GN6U5npMIib0aIBcCDtRfRiud/kXqVVa8xN033x7d8DzsaBcrFw+2y2fq
BaTRhN8NL9fJxRUTns9VddhvVhdCpT2C4RG04daESQxYahf/zlCFXLtlRMJxnbKG
OItmNcTA7BQMiW+/PjWMi44JXX2J/90tVjRU83xuzx/gffeWTP73lvVY9WLyd9Uu
pCGhGfXrMlMnkZ7LqjBQyBYCYCAHVSu2XFuX82NLvn8Mfl2rAgMBAAGjggEfMIIB
GzAJBgNVHRMEAjAAMCwGCWCGSAGG+EIBDQQfFh1PcGVuU1NMIEdlbmVyYXRlZCBD
ZXJ0aWZpY2F0ZTAdBgNVHQ4EFgQUsSdy+aTqdBXJNNwmn7MiYghXJn4wgcAGA1Ud
IwSBuDCBtaGBp6SBpDCBoTELMAkGA1UEBhMCVVMxDTALBgNVBAgMBFV0YWgxFzAV
BgNVBAcMDlNhbHQgTGFrZSBDaXR5MQwwCgYDVQQKDANNU0QxHjAcBgNVBAsMFUNl
cnRpZmljYXRlIEF1dGhvcml0eTETMBEGA1UEAwwKTXkgUm9vdCBDQTEnMCUGCSqG
SIb3DQEJARYYdTYwMzMzNzVAZ2Nsb3VkLnV0YWguZWR1ggkA/U+AJKj5YigwDQYJ
KoZIhvcNAQEEBQADggIBALvKBWkbDRHSHlKVqLdnAwghHtRt2CDjM62ghfX/sRxE
q+FvxL7GG3mSxY4MDGY5RdKUQNsYaxLjz8iqor8o3Gs/gA+9XXjUj9ZtdeGHaElo
vV6AuownXeK0nO/ydoDfVk5RP9bByJ1rOBZ7LUbebEIDvdOvdq1IstgzEV9gqG2D
22tDKNuCNYG86Thdpd9z6T8QFsDdnnIkvee1m4s2aaGWIb79EV6AOhIk/JfGUqZ7
B33i0ag5xpISxvZdeJ45z1vW2YzV55BaJ0Za/Tism/Yaroi5Q/cSB8Kg9gZ/4X+D
U1HNba1U+hdk7d1gFz4wnI6iA5TAW/Fo9z+Sj/kr7EWanC7ji0rvAEldXjfpSuu3
W7opikrALdmcaIw+XS8vS8K+qJ5bEIOSkNyyQTZxh/nDpR4uHJq8PiP8OWSrdCmW
0BQYaETM8NO7cOUYgSy07p9GoXjXp6zyeS2XCwnnb4/jtOS+Qcw4vemseSQwtNug
K10Z8C3hIdMZiKYpecklTmSDha4qKX7wmN2JuRfPnvqtmr3wLgncZMF8fHbBZhav
7zK0hIW/pHjfSzE1MgZ3D+FFAJn7ivyVQuKE05Q9GWsJBg8AKnXagG797JzBbR8t
+s7hPohPOuEz5cnFxT9PwLOJzw3u91YyrVq8tR6zPgiUytr8JOAofgCIvdpmPb/8
-----END CERTIFICATE-----
