Certificate:
    Data:
        Version: 3 (0x2)
        Serial Number: 4099 (0x1003)
    Signature Algorithm: md5WithRSAEncryption
        Issuer: C=US, ST=Utah, L=Salt Lake City, O=MSD, OU=Certificate Authority, CN=My Root CA/emailAddress=u6033375@gcloud.utah.edu
        Validity
            Not Before: Mar 26 17:28:57 2025 GMT
            Not After : Mar 26 17:28:57 2026 GMT
        Subject: C=US, ST=Utah, O=MSD, OU=Server, CN=myserver.local/emailAddress=u6033375@gcloud.utah.edu
        Subject Public Key Info:
            Public Key Algorithm: rsaEncryption
                RSA Public-Key: (4096 bit)
                Modulus:
                    00:ac:ca:ca:07:c4:3b:e5:c0:33:61:bf:40:bc:77:
                    8e:13:2a:86:a8:1f:a7:74:1b:a6:bb:8b:2a:dc:34:
                    cf:52:93:bb:8d:e2:2f:9e:5e:63:b8:8f:01:e0:5a:
                    98:f2:a8:9f:f1:fb:2b:a4:d7:8d:b8:b5:2b:9a:08:
                    a5:03:80:7b:23:69:b3:16:a2:d6:f1:c7:78:d7:c5:
                    69:4f:74:a9:6d:02:00:a0:b2:22:da:4e:aa:83:30:
                    c8:de:49:d8:8e:0f:a5:de:f6:d3:35:53:00:ad:d8:
                    62:96:6a:99:f7:77:e5:af:ad:83:bc:ed:3c:85:ae:
                    d1:58:7d:d5:69:99:66:0f:1b:a4:d6:91:9e:32:aa:
                    81:25:8f:d2:56:5d:0b:7b:9c:89:74:d4:e4:67:ae:
                    71:61:a2:f1:07:63:d9:88:25:25:f6:63:c2:db:a8:
                    f5:11:0e:07:2b:86:02:d5:9d:d5:2a:aa:a3:15:06:
                    2a:78:81:49:68:1b:13:ff:97:eb:83:35:f9:36:56:
                    91:7a:22:44:0a:db:9b:79:68:70:73:1d:0e:97:19:
                    b3:86:45:a3:96:3f:db:0d:bf:c9:d5:63:15:8d:8e:
                    2c:5a:f8:ae:d3:d0:98:ef:3f:19:f3:7c:8b:d1:fc:
                    00:c2:33:c5:5b:58:75:f6:94:55:66:d4:9a:01:87:
                    5d:60:d3:18:8b:1b:19:ba:00:e8:0b:36:cf:a2:b6:
                    ce:89:f7:a0:0f:0f:b1:b0:06:1a:f6:77:64:bd:6b:
                    f1:7f:d5:58:dc:d2:39:02:53:8a:f2:1b:9a:44:bb:
                    17:cb:cf:56:07:da:44:99:ce:cd:83:a3:8b:c3:29:
                    07:fb:46:ba:f4:aa:9d:5c:df:c2:97:1c:3f:f0:3d:
                    7e:72:28:27:f4:bf:ee:49:ed:33:27:7d:69:89:40:
                    66:ae:dc:18:af:b7:fc:62:eb:7c:34:26:b4:33:73:
                    19:ec:8b:50:56:8f:5c:d6:69:2c:30:0e:6a:5a:7d:
                    c6:33:c2:13:a0:da:1e:0b:3a:09:20:81:04:eb:cd:
                    f6:7d:9c:c3:cd:3f:88:43:95:00:bc:ec:66:ba:70:
                    bd:4d:d7:b0:b3:45:da:e0:96:0d:b4:76:19:85:11:
                    aa:50:07:48:40:e6:3a:d0:0b:6c:1c:b3:27:07:c7:
                    a4:c7:6c:56:ee:88:34:cb:70:f6:62:0e:65:f7:e9:
                    26:79:f7:31:28:f9:05:c6:9f:6d:90:ff:c9:a5:78:
                    f1:c8:27:20:c5:0d:19:ae:df:bf:3d:fc:7e:74:4f:
                    85:d1:e2:d2:dd:db:99:24:ee:7d:fe:e7:82:e5:c9:
                    90:c9:89:96:8e:e9:03:bd:0a:e8:a1:42:8a:97:ad:
                    48:44:9d
                Exponent: 65537 (0x10001)
        X509v3 extensions:
            X509v3 Basic Constraints: 
                CA:FALSE
            Netscape Comment: 
                OpenSSL Generated Certificate
            X509v3 Subject Key Identifier: 
                AE:9A:C2:99:9B:AB:80:0F:13:CD:80:77:7E:66:B5:D4:AA:DE:31:64
            X509v3 Authority Key Identifier: 
                DirName:/C=US/ST=Utah/L=Salt Lake City/O=MSD/OU=Certificate Authority/CN=My Root CA/emailAddress=u6033375@gcloud.utah.edu
                serial:FD:4F:80:24:A8:F9:62:28

    Signature Algorithm: md5WithRSAEncryption
         be:89:c3:78:f7:03:17:bb:c5:0a:5b:32:df:d3:4b:04:05:ce:
         59:20:ff:ab:e0:74:2d:db:7e:e3:82:e6:bb:cc:0d:69:bb:6e:
         d2:85:4a:1c:84:f8:8b:f7:ed:b5:34:aa:e7:d2:2a:0c:7c:4a:
         23:d6:11:79:48:8a:ab:fa:96:b9:67:76:f0:3b:cd:72:b4:a6:
         de:ef:56:09:05:4d:e8:9c:56:a8:c4:64:5a:06:41:b5:29:8d:
         05:ee:da:d4:69:37:f1:c9:f9:cd:37:3d:7c:c5:17:d8:af:5c:
         7f:45:77:a0:86:14:f4:09:d8:ae:14:cf:3c:1d:52:b3:8e:bb:
         ac:f0:41:65:15:21:fb:76:ce:70:8a:60:99:fa:c2:85:64:fe:
         68:33:77:91:cb:b1:56:c1:fe:6f:ea:bf:10:44:41:18:89:8c:
         1b:3f:e6:22:ff:d5:1a:58:56:3a:d8:5b:73:22:c0:bc:89:58:
         5a:57:8a:86:06:9a:35:0f:22:59:38:b5:34:0e:37:02:9b:5e:
         aa:28:1f:1c:89:df:f3:33:84:49:08:ed:3b:77:a5:3b:bf:fd:
         18:e4:84:ba:4f:7c:55:17:06:ae:72:b7:7f:39:29:d3:ea:d9:
         31:bb:12:7a:a1:c1:8f:79:0d:14:a9:d0:a5:a4:45:88:6a:87:
         a4:ec:a0:76:f3:53:1c:60:f5:9b:68:e1:19:ff:13:b9:cd:6e:
         ec:5f:2c:a4:e9:8c:c9:30:e2:79:d0:a3:3a:13:11:11:27:a5:
         0c:a2:12:55:ce:c8:f4:33:e8:6f:ee:fd:77:a0:c8:5d:40:93:
         91:3f:38:92:d5:10:38:59:89:51:c5:02:94:d4:ac:d2:81:97:
         a4:8e:19:de:8e:d2:e1:25:ff:8e:54:fa:eb:9a:ec:43:6e:bc:
         1a:8f:97:32:97:3d:e9:06:a4:c6:13:18:00:11:ac:cf:04:39:
         56:3d:6f:0f:b1:7f:7d:a2:71:84:5a:9e:c6:98:10:e3:ee:e8:
         81:4e:b6:ac:ed:ea:bc:c8:21:1e:8a:e2:ed:de:2f:e0:e1:ee:
         4e:74:e0:00:2a:bd:fd:22:46:38:d1:85:79:be:27:86:8e:70:
         49:52:e6:be:9b:50:98:45:ec:73:42:82:c9:9d:87:a7:45:5c:
         0d:d9:d5:4c:47:9c:25:48:29:30:98:e5:6b:d6:15:92:e2:d1:
         bc:84:8b:b4:3e:9e:f7:03:5b:6d:bf:d4:9d:1e:28:e2:f4:a6:
         d3:2b:cf:b3:71:42:e6:16:fa:62:8f:27:d6:e9:ca:0a:11:07:
         cd:34:13:fc:1e:47:4e:b6:b3:42:1e:05:14:c7:e3:d4:78:70:
         1c:d7:fb:90:59:e7:f1:3d
-----BEGIN CERTIFICATE-----
MIIGvDCCBKSgAwIBAgICEAMwDQYJKoZIhvcNAQEEBQAwgaExCzAJBgNVBAYTAlVT
MQ0wCwYDVQQIDARVdGFoMRcwFQYDVQQHDA5TYWx0IExha2UgQ2l0eTEMMAoGA1UE
CgwDTVNEMR4wHAYDVQQLDBVDZXJ0aWZpY2F0ZSBBdXRob3JpdHkxEzARBgNVBAMM
Ck15IFJvb3QgQ0ExJzAlBgkqhkiG9w0BCQEWGHU2MDMzMzc1QGdjbG91ZC51dGFo
LmVkdTAeFw0yNTAzMjYxNzI4NTdaFw0yNjAzMjYxNzI4NTdaMH0xCzAJBgNVBAYT
AlVTMQ0wCwYDVQQIDARVdGFoMQwwCgYDVQQKDANNU0QxDzANBgNVBAsMBlNlcnZl
cjEXMBUGA1UEAwwObXlzZXJ2ZXIubG9jYWwxJzAlBgkqhkiG9w0BCQEWGHU2MDMz
Mzc1QGdjbG91ZC51dGFoLmVkdTCCAiIwDQYJKoZIhvcNAQEBBQADggIPADCCAgoC
ggIBAKzKygfEO+XAM2G/QLx3jhMqhqgfp3QbpruLKtw0z1KTu43iL55eY7iPAeBa
mPKon/H7K6TXjbi1K5oIpQOAeyNpsxai1vHHeNfFaU90qW0CAKCyItpOqoMwyN5J
2I4Ppd720zVTAK3YYpZqmfd35a+tg7ztPIWu0Vh91WmZZg8bpNaRnjKqgSWP0lZd
C3uciXTU5GeucWGi8Qdj2YglJfZjwtuo9REOByuGAtWd1SqqoxUGKniBSWgbE/+X
64M1+TZWkXoiRArbm3locHMdDpcZs4ZFo5Y/2w2/ydVjFY2OLFr4rtPQmO8/GfN8
i9H8AMIzxVtYdfaUVWbUmgGHXWDTGIsbGboA6As2z6K2zon3oA8PsbAGGvZ3ZL1r
8X/VWNzSOQJTivIbmkS7F8vPVgfaRJnOzYOji8MpB/tGuvSqnVzfwpccP/A9fnIo
J/S/7kntMyd9aYlAZq7cGK+3/GLrfDQmtDNzGeyLUFaPXNZpLDAOalp9xjPCE6Da
Hgs6CSCBBOvN9n2cw80/iEOVALzsZrpwvU3XsLNF2uCWDbR2GYURqlAHSEDmOtAL
bByzJwfHpMdsVu6INMtw9mIOZffpJnn3MSj5BcafbZD/yaV48cgnIMUNGa7fvz38
fnRPhdHi0t3bmSTuff7nguXJkMmJlo7pA70K6KFCipetSESdAgMBAAGjggEfMIIB
GzAJBgNVHRMEAjAAMCwGCWCGSAGG+EIBDQQfFh1PcGVuU1NMIEdlbmVyYXRlZCBD
ZXJ0aWZpY2F0ZTAdBgNVHQ4EFgQUrprCmZurgA8TzYB3fma11KreMWQwgcAGA1Ud
IwSBuDCBtaGBp6SBpDCBoTELMAkGA1UEBhMCVVMxDTALBgNVBAgMBFV0YWgxFzAV
BgNVBAcMDlNhbHQgTGFrZSBDaXR5MQwwCgYDVQQKDANNU0QxHjAcBgNVBAsMFUNl
cnRpZmljYXRlIEF1dGhvcml0eTETMBEGA1UEAwwKTXkgUm9vdCBDQTEnMCUGCSqG
SIb3DQEJARYYdTYwMzMzNzVAZ2Nsb3VkLnV0YWguZWR1ggkA/U+AJKj5YigwDQYJ
KoZIhvcNAQEEBQADggIBAL6Jw3j3Axe7xQpbMt/TSwQFzlkg/6vgdC3bfuOC5rvM
DWm7btKFShyE+Iv37bU0qufSKgx8SiPWEXlIiqv6lrlndvA7zXK0pt7vVgkFTeic
VqjEZFoGQbUpjQXu2tRpN/HJ+c03PXzFF9ivXH9Fd6CGFPQJ2K4UzzwdUrOOu6zw
QWUVIft2znCKYJn6woVk/mgzd5HLsVbB/m/qvxBEQRiJjBs/5iL/1RpYVjrYW3Mi
wLyJWFpXioYGmjUPIlk4tTQONwKbXqooHxyJ3/MzhEkI7Tt3pTu//RjkhLpPfFUX
Bq5yt385KdPq2TG7EnqhwY95DRSp0KWkRYhqh6TsoHbzUxxg9Zto4Rn/E7nNbuxf
LKTpjMkw4nnQozoTEREnpQyiElXOyPQz6G/u/XegyF1Ak5E/OJLVEDhZiVHFApTU
rNKBl6SOGd6O0uEl/45U+uua7ENuvBqPlzKXPekGpMYTGAARrM8EOVY9bw+xf32i
cYRansaYEOPu6IFOtqzt6rzIIR6K4u3eL+Dh7k504AAqvf0iRjjRhXm+J4aOcElS
5r6bUJhF7HNCgsmdh6dFXA3Z1UxHnCVIKTCY5WvWFZLi0byEi7Q+nvcDW22/1J0e
KOL0ptMrz7NxQuYW+mKPJ9bpygoRB800E/weR062s0IeBRTH49R4cBzX+5BZ5/E9
-----END CERTIFICATE-----
