Certificate:
    Data:
        Version: 3 (0x2)
        Serial Number: 4097 (0x1001)
    Signature Algorithm: md5WithRSAEncryption
        Issuer: C=US, ST=Utah, L=Salt Lake City, O=U of U, OU=MSD, CN=Root CA
        Validity
            Not Before: Mar 27 19:05:35 2025 GMT
            Not After : Mar 27 19:05:35 2026 GMT
        Subject: C=US, ST=Utah, O=U of U, OU=MSD, CN=client
        Subject Public Key Info:
            Public Key Algorithm: rsaEncryption
                RSA Public-Key: (4096 bit)
                Modulus:
                    00:d8:c8:e8:bb:ff:0b:0b:06:da:cc:a8:74:9b:ae:
                    c7:49:19:cb:8e:51:c7:ef:af:59:d0:9f:ff:0a:91:
                    2a:cb:89:83:ac:76:b7:35:5e:a9:6d:7e:de:7a:d0:
                    b3:d2:44:7c:d8:26:0e:c5:35:7c:8f:95:c9:a7:3e:
                    e0:02:e7:1e:14:cb:0e:91:d0:f6:87:56:32:b7:b9:
                    7a:ab:b7:7f:8c:27:90:0c:be:cb:9b:b7:8b:51:1a:
                    d0:6f:25:d2:c5:57:ef:ce:f1:57:be:3c:65:df:35:
                    df:23:31:ff:a4:c8:d0:a9:b3:81:69:5d:40:a4:c1:
                    36:ab:b5:75:39:3b:2a:1a:bd:e3:a7:fc:5a:9b:5e:
                    3b:8d:80:28:f9:6a:73:7a:d7:25:d8:14:f7:b7:ea:
                    f2:e3:21:d6:36:a3:1e:86:ca:61:be:aa:5a:9f:f2:
                    08:6e:a3:bb:f6:1c:a5:d9:44:55:6e:a0:17:40:e1:
                    fa:d2:52:23:75:bf:c9:86:40:29:e5:e7:d5:0f:7a:
                    3e:2e:02:c8:86:7f:4e:52:43:41:10:5e:aa:d9:5b:
                    81:11:95:7c:77:ae:6c:3a:0c:1c:d9:16:e9:db:63:
                    32:42:4a:86:d7:44:a5:9b:4d:ec:c4:15:c7:20:8e:
                    4e:fd:ef:a6:d0:ca:26:07:a6:af:5e:83:36:15:f6:
                    ba:dd:62:a4:d2:ae:58:e2:0b:7e:2e:0d:9b:df:37:
                    fd:be:ea:62:39:0f:87:b2:35:95:76:ad:52:84:2e:
                    3d:39:9a:a7:76:48:e2:9a:6f:32:f6:f0:e4:d4:b1:
                    fd:2f:16:b4:dd:38:83:fe:2b:9f:64:53:3d:f9:d5:
                    cf:f9:5b:43:ff:0e:e3:c1:39:a1:05:af:e4:8f:36:
                    8e:38:2b:30:62:9d:13:cc:54:8e:df:16:28:87:e2:
                    d1:58:a9:09:73:32:47:aa:66:91:86:e4:e7:52:60:
                    db:c1:b7:ad:d9:ba:54:ff:4d:5b:5f:3a:36:b2:d5:
                    fa:43:0a:66:f5:30:9e:0f:60:52:3f:42:e3:8c:dd:
                    d1:ac:df:c0:e0:d4:ea:d6:0d:80:81:39:13:dc:9d:
                    88:b2:46:7c:8b:9d:70:39:4e:5c:06:d4:07:7f:fe:
                    0e:b8:6f:36:15:96:dd:13:d6:1d:60:d6:a3:e0:b1:
                    26:24:c9:6e:ad:90:6c:88:08:df:e8:f7:de:d3:dd:
                    ff:9b:65:a7:fa:53:05:d3:47:cd:86:98:6e:68:8e:
                    1c:05:1d:16:38:c9:14:7c:80:80:0d:37:89:a6:1e:
                    df:59:96:e2:06:b3:29:e6:ff:73:8b:90:ba:29:00:
                    58:50:fe:e9:42:e7:d4:e5:8a:74:dc:6d:52:a2:cb:
                    77:f4:91
                Exponent: 65537 (0x10001)
        X509v3 extensions:
            X509v3 Basic Constraints: 
                CA:FALSE
            Netscape Comment: 
                OpenSSL Generated Certificate
            X509v3 Subject Key Identifier: 
                99:D1:0A:6C:56:E5:32:06:5D:0A:4E:E2:1B:DD:41:B3:05:04:A8:D8
            X509v3 Authority Key Identifier: 
                DirName:/C=US/ST=Utah/L=Salt Lake City/O=U of U/OU=MSD/CN=Root CA
                serial:AE:A5:6F:0E:B1:0F:F0:61

    Signature Algorithm: md5WithRSAEncryption
         56:db:39:5f:25:52:3c:f1:79:45:fd:3d:4c:d2:02:76:b1:16:
         0b:f7:a7:2c:bb:7a:64:19:92:9f:26:9d:f4:f6:b5:91:f7:c7:
         05:74:7b:ee:51:c9:4e:65:5f:eb:14:6a:70:25:4a:db:1f:0d:
         97:61:ed:46:c0:f1:2b:80:34:77:93:15:75:21:a7:70:c1:70:
         40:a5:c8:75:06:cf:06:00:0b:aa:f4:bc:f5:67:72:1d:b5:e0:
         eb:27:7d:6d:0c:7c:d7:79:c9:c0:ee:30:cb:ef:94:db:40:f5:
         a7:5e:ad:26:21:a4:5e:2e:89:32:5f:5a:31:91:ba:f7:58:4c:
         b3:0e:97:03:00:2a:b4:28:f4:8b:4a:01:41:89:0b:da:54:6e:
         4f:8a:8e:4a:cc:43:a2:68:27:c8:5f:c1:b0:92:97:91:3a:10:
         b6:1e:1b:e6:43:ac:5f:91:32:59:5f:fc:46:1d:ce:f5:4d:7d:
         bf:ae:36:6e:ba:b7:61:6a:51:86:5a:23:20:ff:3b:60:26:e8:
         f2:35:18:5a:86:e1:36:f1:07:d2:8c:b3:a9:a7:65:d0:34:db:
         0a:1b:fd:a0:18:cb:2c:32:dd:a3:f4:0c:44:ba:5f:e9:71:aa:
         0f:d5:85:2e:09:ee:6c:3c:97:fb:e4:68:b4:86:83:8b:39:d0:
         a1:f0:a0:21:87:41:a3:15:4e:f3:5f:aa:74:dc:d8:db:33:7b:
         60:06:ba:0f:92:ab:73:7c:44:d5:50:ca:bd:8d:79:e2:97:50:
         fd:15:f4:f2:04:e8:18:b1:7e:ab:ae:1f:06:cd:73:82:1a:68:
         5c:4b:de:3d:8f:d4:f2:59:37:dc:fd:8f:e7:67:04:bf:f8:8f:
         34:7c:56:9e:cb:f1:cf:4c:fa:62:e4:de:bb:2a:82:99:15:e9:
         45:dd:bb:ae:f2:ad:99:b2:7d:01:5e:ad:a5:46:e8:11:0a:a1:
         5f:0e:6d:be:91:8f:19:08:a5:e0:f1:da:af:5e:f6:b2:d4:7c:
         c9:45:4d:ce:e2:ba:13:ca:a6:a6:a1:14:74:13:59:71:50:f7:
         3e:78:60:e9:11:51:26:a0:9c:dc:38:2d:b7:65:7a:c9:fd:4a:
         98:6e:37:f5:03:3c:0d:3a:27:70:a6:8b:5a:89:5a:fc:3c:a0:
         61:af:fc:46:97:39:59:32:44:5c:cd:b7:4d:3b:e2:92:8a:2c:
         23:21:af:a5:03:29:78:ce:6b:15:b1:ae:30:87:d1:61:ac:c9:
         2c:22:b9:72:83:89:63:71:f4:1e:da:54:06:e1:a0:e3:56:bf:
         0a:a7:95:34:14:11:66:85:73:59:5e:bb:56:88:68:aa:b3:53:
         dc:b6:f3:e6:0a:bf:1c:7d
-----BEGIN CERTIFICATE-----
MIIGDTCCA/WgAwIBAgICEAEwDQYJKoZIhvcNAQEEBQAwZjELMAkGA1UEBhMCVVMx
DTALBgNVBAgMBFV0YWgxFzAVBgNVBAcMDlNhbHQgTGFrZSBDaXR5MQ8wDQYDVQQK
DAZVIG9mIFUxDDAKBgNVBAsMA01TRDEQMA4GA1UEAwwHUm9vdCBDQTAeFw0yNTAz
MjcxOTA1MzVaFw0yNjAzMjcxOTA1MzVaMEwxCzAJBgNVBAYTAlVTMQ0wCwYDVQQI
DARVdGFoMQ8wDQYDVQQKDAZVIG9mIFUxDDAKBgNVBAsMA01TRDEPMA0GA1UEAwwG
Y2xpZW50MIICIjANBgkqhkiG9w0BAQEFAAOCAg8AMIICCgKCAgEA2Mjou/8LCwba
zKh0m67HSRnLjlHH769Z0J//CpEqy4mDrHa3NV6pbX7eetCz0kR82CYOxTV8j5XJ
pz7gAuceFMsOkdD2h1Yyt7l6q7d/jCeQDL7Lm7eLURrQbyXSxVfvzvFXvjxl3zXf
IzH/pMjQqbOBaV1ApME2q7V1OTsqGr3jp/xam147jYAo+Wpzetcl2BT3t+ry4yHW
NqMehsphvqpan/IIbqO79hyl2URVbqAXQOH60lIjdb/JhkAp5efVD3o+LgLIhn9O
UkNBEF6q2VuBEZV8d65sOgwc2Rbp22MyQkqG10Slm03sxBXHII5O/e+m0MomB6av
XoM2Ffa63WKk0q5Y4gt+Lg2b3zf9vupiOQ+HsjWVdq1ShC49OZqndkjimm8y9vDk
1LH9Lxa03TiD/iufZFM9+dXP+VtD/w7jwTmhBa/kjzaOOCswYp0TzFSO3xYoh+LR
WKkJczJHqmaRhuTnUmDbwbet2bpU/01bXzo2stX6Qwpm9TCeD2BSP0LjjN3RrN/A
4NTq1g2AgTkT3J2IskZ8i51wOU5cBtQHf/4OuG82FZbdE9YdYNaj4LEmJMlurZBs
iAjf6Pfe093/m2Wn+lMF00fNhphuaI4cBR0WOMkUfICADTeJph7fWZbiBrMp5v9z
i5C6KQBYUP7pQufU5Yp03G1Sost39JECAwEAAaOB3jCB2zAJBgNVHRMEAjAAMCwG
CWCGSAGG+EIBDQQfFh1PcGVuU1NMIEdlbmVyYXRlZCBDZXJ0aWZpY2F0ZTAdBgNV
HQ4EFgQUmdEKbFblMgZdCk7iG91BswUEqNgwgYAGA1UdIwR5MHehaqRoMGYxCzAJ
BgNVBAYTAlVTMQ0wCwYDVQQIDARVdGFoMRcwFQYDVQQHDA5TYWx0IExha2UgQ2l0
eTEPMA0GA1UECgwGVSBvZiBVMQwwCgYDVQQLDANNU0QxEDAOBgNVBAMMB1Jvb3Qg
Q0GCCQCupW8OsQ/wYTANBgkqhkiG9w0BAQQFAAOCAgEAVts5XyVSPPF5Rf09TNIC
drEWC/enLLt6ZBmSnyad9Pa1kffHBXR77lHJTmVf6xRqcCVK2x8Nl2HtRsDxK4A0
d5MVdSGncMFwQKXIdQbPBgALqvS89WdyHbXg6yd9bQx813nJwO4wy++U20D1p16t
JiGkXi6JMl9aMZG691hMsw6XAwAqtCj0i0oBQYkL2lRuT4qOSsxDomgnyF/BsJKX
kToQth4b5kOsX5EyWV/8Rh3O9U19v642brq3YWpRhlojIP87YCbo8jUYWobhNvEH
0oyzqadl0DTbChv9oBjLLDLdo/QMRLpf6XGqD9WFLgnubDyX++RotIaDiznQofCg
IYdBoxVO81+qdNzY2zN7YAa6D5Krc3xE1VDKvY154pdQ/RX08gToGLF+q64fBs1z
ghpoXEvePY/U8lk33P2P52cEv/iPNHxWnsvxz0z6YuTeuyqCmRXpRd27rvKtmbJ9
AV6tpUboEQqhXw5tvpGPGQil4PHar172stR8yUVNzuK6E8qmpqEUdBNZcVD3Pnhg
6RFRJqCc3Dgtt2V6yf1KmG439QM8DToncKaLWola/DygYa/8Rpc5WTJEXM23TTvi
koosIyGvpQMpeM5rFbGuMIfRYazJLCK5coOJY3H0HtpUBuGg41a/CqeVNBQRZoVz
WV67VohoqrNT3Lbz5gq/HH0=
-----END CERTIFICATE-----
