Certificate:
    Data:
        Version: 3 (0x2)
        Serial Number: 4096 (0x1000)
    Signature Algorithm: md5WithRSAEncryption
        Issuer: C=US, ST=Utah, L=Salt Lake City, O=U of U, OU=MSD, CN=Root CA
        Validity
            Not Before: Mar 27 19:05:11 2025 GMT
            Not After : Mar 27 19:05:11 2026 GMT
        Subject: C=US, ST=Utah, O=U of U, OU=MSD, CN=server
        Subject Public Key Info:
            Public Key Algorithm: rsaEncryption
                RSA Public-Key: (4096 bit)
                Modulus:
                    00:94:e6:f1:e0:42:d1:c8:3d:10:13:c8:bd:8a:cf:
                    af:1b:a6:05:9d:0a:99:49:79:6a:00:92:75:2f:a3:
                    7d:a1:58:31:96:af:06:77:ef:57:fa:ed:1b:be:0d:
                    bf:78:f6:fc:17:b5:ef:10:9a:66:db:b8:e7:3e:39:
                    83:51:10:29:2f:23:c6:58:e1:01:0e:a7:0d:c9:17:
                    bb:04:3a:bb:40:29:68:ad:6e:4e:31:e3:dd:35:e2:
                    a0:a7:ae:94:62:75:3b:9c:9c:97:78:d6:56:aa:c2:
                    90:f0:ac:f2:3c:d0:f0:e0:ad:8e:9a:13:a8:6c:45:
                    d8:20:b1:e7:cb:ca:6f:58:a9:36:98:72:44:7c:df:
                    6a:3c:62:f2:4a:40:dc:e8:9f:d0:71:c5:32:85:1f:
                    09:20:49:3a:b4:1c:2f:1d:ec:45:f7:63:f2:7f:5a:
                    6c:83:8d:7a:de:d7:c2:8c:6f:ad:12:0b:36:5f:ab:
                    99:d9:e4:f1:78:d6:d6:a0:6a:0a:2d:e6:76:a8:f1:
                    bd:3e:a8:4d:8c:b9:43:7d:57:ca:ce:1f:19:8a:81:
                    e8:96:4d:44:51:a0:fc:87:f7:01:e3:d2:ad:a6:88:
                    6a:c9:26:4d:9d:9f:77:70:cf:d5:04:55:83:2b:c0:
                    4f:44:4f:59:5b:b1:58:7c:fd:2c:a9:e0:a0:b6:2d:
                    6c:96:2c:65:d2:cc:8f:e9:ca:82:b1:ba:44:21:43:
                    05:64:77:58:9b:2a:7c:c2:4f:4c:9e:cc:d9:5a:96:
                    3b:97:44:61:5b:96:25:d8:c5:40:9c:b7:38:27:24:
                    d2:71:b4:5f:c0:0e:1a:24:ed:6e:ad:b3:55:21:65:
                    c8:ce:65:c6:74:08:a7:52:f7:a6:e7:3f:82:80:cf:
                    9f:51:38:d3:4e:6a:69:b5:c9:f8:5e:f0:d8:5e:2b:
                    f3:70:95:b1:8d:82:0b:57:5a:6c:7d:1f:47:12:4d:
                    42:45:84:dd:2f:3b:01:5a:64:f5:c9:86:6d:cd:75:
                    c9:3f:f0:14:02:bc:90:39:ce:2e:1e:41:89:53:e9:
                    3c:f2:e8:f3:bf:4f:0c:8c:6f:0e:5c:7b:04:fa:cf:
                    83:c6:1b:7e:bd:3c:30:21:44:fa:9c:c9:7e:82:83:
                    6c:ab:84:91:6c:d3:a9:be:22:6c:19:03:27:ca:64:
                    cc:d0:97:5a:c1:bd:19:56:7e:93:7d:c2:06:76:a6:
                    b2:1f:e5:df:e6:89:4a:47:de:1a:8c:9d:b8:c4:68:
                    bf:32:13:10:26:fe:4e:0c:0e:4a:b4:1e:6d:65:9f:
                    fe:9d:a6:20:66:a0:7f:58:57:e0:91:92:db:d3:bf:
                    cd:e1:87:33:c2:45:4d:6c:07:19:6c:d0:d3:c1:f3:
                    5a:4d:41
                Exponent: 65537 (0x10001)
        X509v3 extensions:
            X509v3 Basic Constraints: 
                CA:FALSE
            Netscape Comment: 
                OpenSSL Generated Certificate
            X509v3 Subject Key Identifier: 
                BD:A4:87:4B:94:78:9D:A9:E0:AA:C8:DE:75:D3:48:7D:13:80:DD:60
            X509v3 Authority Key Identifier: 
                DirName:/C=US/ST=Utah/L=Salt Lake City/O=U of U/OU=MSD/CN=Root CA
                serial:AE:A5:6F:0E:B1:0F:F0:61

    Signature Algorithm: md5WithRSAEncryption
         6f:2d:d1:a2:ac:e7:dd:c1:c1:35:00:0f:f3:55:7b:0c:15:61:
         63:8b:47:72:ef:ad:fe:55:d9:54:89:e6:a4:2e:ad:7c:83:c3:
         a0:40:30:2b:fa:07:ae:e2:a9:a3:40:ea:87:70:87:9d:44:9f:
         98:e4:d0:4e:dd:73:1b:42:53:72:d4:cc:39:bd:bd:b3:81:bf:
         aa:46:87:ab:99:88:cb:aa:77:d1:8c:f2:f1:00:db:2a:a1:03:
         7a:a0:1a:2e:71:f0:c2:03:0f:c8:35:88:2c:5e:d6:e6:d3:47:
         4c:1b:ba:27:65:28:a1:3b:e1:71:1a:6f:b6:97:97:f6:77:7d:
         93:48:46:09:79:2d:9b:4e:c3:90:a9:cd:15:c3:30:f1:7b:7f:
         d7:e8:a3:85:89:0b:af:86:be:3d:3a:2f:c3:72:71:50:46:98:
         e3:eb:f9:97:7f:19:f9:91:88:32:0a:a0:fe:9c:0c:09:2b:7d:
         16:41:50:b5:59:5a:49:14:24:9f:86:e8:95:3d:fd:c9:62:44:
         25:cf:40:0a:a2:12:72:f7:3d:7a:af:0b:77:04:a9:5d:70:aa:
         5e:04:4a:ef:ae:53:35:3a:81:06:b5:b7:f0:ca:80:59:6c:01:
         7f:ee:07:67:f0:14:92:05:00:80:2f:77:72:9a:4b:20:7a:0c:
         c8:3a:e2:f3:e6:8d:88:44:12:f2:c7:77:2d:e7:29:e4:47:97:
         b9:77:5e:0b:4c:c2:a5:7f:97:a7:dc:f1:ae:83:64:9f:b7:e6:
         77:cc:c2:9f:18:27:45:4b:fc:e3:d9:24:b0:cf:3d:6b:63:33:
         c2:d6:f2:aa:1c:f2:68:ec:2f:ca:c7:43:06:c2:3d:55:ea:47:
         2e:ef:ac:e7:91:5e:ec:e5:74:49:30:b3:4e:4d:9d:5a:4b:f1:
         7e:56:55:ea:7e:db:28:34:b2:71:f4:ef:09:e8:91:a8:9f:69:
         9b:30:a4:86:76:ef:6f:4a:0f:ce:b6:c7:76:5a:dc:eb:8d:ce:
         08:29:93:bc:d8:02:31:47:10:11:d0:16:47:44:5f:a4:4e:68:
         17:66:e1:5b:bc:3e:f6:97:7a:b5:d7:cc:ee:60:69:87:04:70:
         2b:81:9c:d7:bb:57:93:91:c5:55:1f:46:2f:9a:ab:00:df:f3:
         5d:e0:be:26:5a:32:b6:94:f4:31:20:78:85:3f:76:40:b1:eb:
         86:a0:1e:66:b4:64:f8:b9:2e:aa:09:0c:80:08:8d:26:4c:02:
         6a:07:37:e7:20:4e:27:2d:e8:3f:d9:f8:e6:50:f8:a3:4d:d7:
         ed:0e:b5:a5:e6:97:d4:a7:13:50:e2:16:0c:9b:5a:c5:f5:e9:
         0d:50:47:07:90:f1:cc:36
-----BEGIN CERTIFICATE-----
MIIGDTCCA/WgAwIBAgICEAAwDQYJKoZIhvcNAQEEBQAwZjELMAkGA1UEBhMCVVMx
DTALBgNVBAgMBFV0YWgxFzAVBgNVBAcMDlNhbHQgTGFrZSBDaXR5MQ8wDQYDVQQK
DAZVIG9mIFUxDDAKBgNVBAsMA01TRDEQMA4GA1UEAwwHUm9vdCBDQTAeFw0yNTAz
MjcxOTA1MTFaFw0yNjAzMjcxOTA1MTFaMEwxCzAJBgNVBAYTAlVTMQ0wCwYDVQQI
DARVdGFoMQ8wDQYDVQQKDAZVIG9mIFUxDDAKBgNVBAsMA01TRDEPMA0GA1UEAwwG
c2VydmVyMIICIjANBgkqhkiG9w0BAQEFAAOCAg8AMIICCgKCAgEAlObx4ELRyD0Q
E8i9is+vG6YFnQqZSXlqAJJ1L6N9oVgxlq8Gd+9X+u0bvg2/ePb8F7XvEJpm27jn
PjmDURApLyPGWOEBDqcNyRe7BDq7QClorW5OMePdNeKgp66UYnU7nJyXeNZWqsKQ
8KzyPNDw4K2OmhOobEXYILHny8pvWKk2mHJEfN9qPGLySkDc6J/QccUyhR8JIEk6
tBwvHexF92Pyf1psg4163tfCjG+tEgs2X6uZ2eTxeNbWoGoKLeZ2qPG9PqhNjLlD
fVfKzh8ZioHolk1EUaD8h/cB49KtpohqySZNnZ93cM/VBFWDK8BPRE9ZW7FYfP0s
qeCgti1slixl0syP6cqCsbpEIUMFZHdYmyp8wk9MnszZWpY7l0RhW5Yl2MVAnLc4
JyTScbRfwA4aJO1urbNVIWXIzmXGdAinUvem5z+CgM+fUTjTTmpptcn4XvDYXivz
cJWxjYILV1psfR9HEk1CRYTdLzsBWmT1yYZtzXXJP/AUAryQOc4uHkGJU+k88ujz
v08MjG8OXHsE+s+Dxht+vTwwIUT6nMl+goNsq4SRbNOpviJsGQMnymTM0Jdawb0Z
Vn6TfcIGdqayH+Xf5olKR94ajJ24xGi/MhMQJv5ODA5KtB5tZZ/+naYgZqB/WFfg
kZLb07/N4YczwkVNbAcZbNDTwfNaTUECAwEAAaOB3jCB2zAJBgNVHRMEAjAAMCwG
CWCGSAGG+EIBDQQfFh1PcGVuU1NMIEdlbmVyYXRlZCBDZXJ0aWZpY2F0ZTAdBgNV
HQ4EFgQUvaSHS5R4nangqsjeddNIfROA3WAwgYAGA1UdIwR5MHehaqRoMGYxCzAJ
BgNVBAYTAlVTMQ0wCwYDVQQIDARVdGFoMRcwFQYDVQQHDA5TYWx0IExha2UgQ2l0
eTEPMA0GA1UECgwGVSBvZiBVMQwwCgYDVQQLDANNU0QxEDAOBgNVBAMMB1Jvb3Qg
Q0GCCQCupW8OsQ/wYTANBgkqhkiG9w0BAQQFAAOCAgEAby3Roqzn3cHBNQAP81V7
DBVhY4tHcu+t/lXZVInmpC6tfIPDoEAwK/oHruKpo0Dqh3CHnUSfmOTQTt1zG0JT
ctTMOb29s4G/qkaHq5mIy6p30Yzy8QDbKqEDeqAaLnHwwgMPyDWILF7W5tNHTBu6
J2UooTvhcRpvtpeX9nd9k0hGCXktm07DkKnNFcMw8Xt/1+ijhYkLr4a+PTovw3Jx
UEaY4+v5l38Z+ZGIMgqg/pwMCSt9FkFQtVlaSRQkn4bolT39yWJEJc9ACqIScvc9
eq8LdwSpXXCqXgRK765TNTqBBrW38MqAWWwBf+4HZ/AUkgUAgC93cppLIHoMyDri
8+aNiEQS8sd3Lecp5EeXuXdeC0zCpX+Xp9zxroNkn7fmd8zCnxgnRUv849kksM89
a2MzwtbyqhzyaOwvysdDBsI9VepHLu+s55Fe7OV0STCzTk2dWkvxflZV6n7bKDSy
cfTvCeiRqJ9pmzCkhnbvb0oPzrbHdlrc643OCCmTvNgCMUcQEdAWR0RfpE5oF2bh
W7w+9pd6tdfM7mBphwRwK4Gc17tXk5HFVR9GL5qrAN/zXeC+JloytpT0MSB4hT92
QLHrhqAeZrRk+LkuqgkMgAiNJkwCagc35yBOJy3oP9n45lD4o03X7Q61peaX1KcT
UOIWDJtaxfXpDVBHB5DxzDY=
-----END CERTIFICATE-----
