Certificate:
    Data:
        Version: 3 (0x2)
        Serial Number: 4096 (0x1000)
    Signature Algorithm: md5WithRSAEncryption
        Issuer: C=US, ST=UT, L=SLC, O=U of U, OU=MSD, CN=6014
        Validity
            Not Before: Mar 26 17:12:25 2025 GMT
            Not After : Mar 26 17:12:25 2026 GMT
        Subject: C=US, ST=UT, O=U of U, OU=MSD, CN=6014
        Subject Public Key Info:
            Public Key Algorithm: rsaEncryption
                RSA Public-Key: (4096 bit)
                Modulus:
                    00:ba:2a:42:be:58:df:fe:34:8a:e7:07:e6:b7:07:
                    6f:a4:27:f2:30:ed:6c:fc:bd:ec:26:55:3b:1e:77:
                    6c:dd:3e:3b:66:f6:79:43:eb:d6:ab:2e:8f:f2:37:
                    19:66:7b:3e:c2:be:41:2c:11:65:4a:00:72:6e:a0:
                    de:7a:99:87:8e:28:39:ba:62:69:a4:55:21:6b:c0:
                    5a:2d:de:43:9b:71:d0:d6:6a:56:49:42:6e:54:b0:
                    f6:d5:a3:66:15:8c:50:cd:86:6d:2a:d4:7d:8a:4d:
                    86:5a:91:9f:cb:ad:14:93:59:bf:08:89:db:82:3d:
                    fc:d2:87:04:bb:7e:97:15:47:f6:3a:72:89:3d:fe:
                    4b:34:33:c5:7b:b8:6d:f7:bc:14:9b:28:02:77:68:
                    96:37:ec:a5:30:da:0f:77:e0:7f:1c:56:e7:5c:c3:
                    ba:99:3b:56:d7:38:57:54:98:2e:e7:20:7c:1b:1a:
                    cf:11:1e:a1:76:41:7f:e9:99:af:b9:ae:ad:f8:85:
                    84:8b:96:a7:43:1f:a3:38:1c:0f:89:e3:e1:8c:35:
                    0b:df:85:f0:e2:6a:04:dc:e8:48:5b:e8:68:c5:05:
                    27:99:2a:aa:88:d9:b7:92:d2:70:b2:6b:ab:0c:88:
                    f5:bb:fc:5e:e9:f6:e6:d3:2d:00:02:40:1c:34:ff:
                    92:88:98:7d:7d:1b:32:97:ff:2b:f6:5d:8c:b4:48:
                    74:a1:04:1e:68:46:28:78:dd:d1:e5:39:d4:10:72:
                    49:fd:ce:17:ab:e9:a3:37:93:25:6c:03:04:76:4f:
                    03:f4:34:9a:00:93:c4:d4:36:0c:75:59:ca:63:36:
                    01:b2:04:b1:95:e9:ec:7f:ba:58:bf:43:c6:7c:78:
                    7c:65:7f:a1:43:54:a7:d5:25:e4:36:41:8b:1a:e6:
                    22:e5:37:9e:74:a1:16:e5:c6:63:26:9a:b2:65:28:
                    6c:97:bf:24:bf:92:dd:d1:f5:94:95:d4:84:a4:43:
                    50:1c:ec:29:ac:02:fe:f2:39:aa:cf:3d:58:4c:df:
                    d8:05:a3:06:19:37:ae:98:07:5c:7f:c6:2c:5a:dc:
                    51:be:4c:20:da:d8:6c:79:8a:53:da:45:eb:5b:9c:
                    8c:f6:7d:6d:fe:90:0b:51:e7:b5:a6:8e:2f:99:bc:
                    a1:67:5e:a6:c6:80:4a:19:11:fc:8d:0a:62:7c:43:
                    9a:55:e0:39:a8:fe:dd:5f:26:50:5a:97:54:72:40:
                    68:dd:85:ce:ff:21:26:c0:ba:95:6a:c1:d2:a8:76:
                    51:34:f0:48:c7:ea:b5:53:44:08:e7:00:1d:49:7b:
                    c0:dc:65:df:e9:73:54:f0:2c:eb:e3:93:b7:30:dd:
                    8f:2c:37
                Exponent: 65537 (0x10001)
        X509v3 extensions:
            X509v3 Basic Constraints: 
                CA:FALSE
            Netscape Comment: 
                OpenSSL Generated Certificate
            X509v3 Subject Key Identifier: 
                2D:CB:82:56:11:09:C3:6A:D7:41:76:B3:B0:FF:B1:21:98:4F:39:D2
            X509v3 Authority Key Identifier: 
                DirName:/C=US/ST=UT/L=SLC/O=U of U/OU=MSD/CN=6014
                serial:9F:88:28:9D:CC:7A:3D:62

    Signature Algorithm: md5WithRSAEncryption
         38:11:07:88:e3:9d:a0:49:9d:dc:3c:1d:23:8c:2e:9d:59:59:
         cf:55:f6:2f:3c:6d:3d:79:12:bd:44:8f:fe:a2:e7:9b:e4:9d:
         07:fb:ae:14:98:71:1e:57:5e:e8:95:af:e3:31:78:5c:3a:3b:
         61:e8:66:01:35:20:00:94:4e:c9:11:be:f4:56:6b:39:45:40:
         21:41:4d:b2:ca:23:38:10:e4:25:01:72:47:0d:11:b1:4f:f3:
         24:8b:13:9e:03:23:1f:5d:d2:0a:2f:23:2e:51:42:d9:4f:8e:
         c6:0e:8b:34:6b:81:2e:12:9b:42:d4:14:1e:f1:0a:72:05:68:
         fc:f6:ef:de:c2:ee:09:4c:3f:fb:97:c3:ae:fb:5d:31:7b:6e:
         3f:88:41:22:44:a5:c2:ba:a2:15:ac:83:2a:c0:9f:eb:67:d6:
         45:7c:9a:2e:e3:72:46:84:56:65:1c:ef:64:c6:51:85:06:54:
         73:9d:20:35:a1:15:02:35:6a:75:71:6f:4d:64:28:4c:33:3a:
         98:94:8a:39:c7:c8:3d:a8:a9:5d:72:74:d3:ad:f8:ad:5a:12:
         ed:9f:41:7c:aa:de:77:93:d5:47:bf:c0:36:72:ea:99:ee:10:
         02:59:fe:bc:44:95:7f:d2:49:85:26:6c:40:5b:a1:a9:88:56:
         f4:8a:c0:3e:36:00:9b:25:d9:e0:b5:d9:46:06:a1:d3:c6:84:
         df:f0:0e:d6:f3:8a:fb:33:08:eb:64:f6:c9:41:b2:99:ce:fa:
         b3:ac:2f:d3:e7:cb:b4:bc:31:20:85:e1:3b:31:d6:15:3c:59:
         3b:fc:b8:b3:dd:2f:0c:1b:de:3c:59:b2:3a:5e:c7:7b:11:db:
         49:fa:9e:35:95:59:50:27:92:81:fa:f8:ba:a0:9d:04:20:4c:
         b4:80:a5:35:0b:bb:73:79:f9:74:c9:e7:7b:93:76:21:ec:16:
         d8:55:fb:39:20:cf:77:d1:b8:37:2a:bf:b3:bd:a9:8b:8b:19:
         5c:80:41:f0:b5:7e:41:5f:30:12:92:75:e6:fa:d7:bd:c2:2c:
         6c:15:cc:22:a3:a2:37:c8:9d:48:2d:ad:55:42:3f:0a:9e:cd:
         b5:59:a4:7b:a8:5b:61:6b:f7:25:52:71:40:c7:4f:74:5b:d2:
         73:4e:1f:4c:27:30:2c:fb:71:bc:20:2f:4f:ab:3f:fb:ca:a1:
         98:8e:c7:09:ec:77:73:7d:4c:ee:9a:63:5e:9e:d7:86:8e:31:
         11:a7:84:56:41:19:9d:8b:67:82:3e:f0:e6:6c:cc:da:88:15:
         77:1a:86:71:78:95:e8:c0:9b:cf:67:e0:8e:2d:3a:35:26:7d:
         a6:1a:84:dc:5e:24:cb:4f
-----BEGIN CERTIFICATE-----
MIIF6DCCA9CgAwIBAgICEAAwDQYJKoZIhvcNAQEEBQAwVjELMAkGA1UEBhMCVVMx
CzAJBgNVBAgMAlVUMQwwCgYDVQQHDANTTEMxDzANBgNVBAoMBlUgb2YgVTEMMAoG
A1UECwwDTVNEMQ0wCwYDVQQDDAQ2MDE0MB4XDTI1MDMyNjE3MTIyNVoXDTI2MDMy
NjE3MTIyNVowSDELMAkGA1UEBhMCVVMxCzAJBgNVBAgMAlVUMQ8wDQYDVQQKDAZV
IG9mIFUxDDAKBgNVBAsMA01TRDENMAsGA1UEAwwENjAxNDCCAiIwDQYJKoZIhvcN
AQEBBQADggIPADCCAgoCggIBALoqQr5Y3/40iucH5rcHb6Qn8jDtbPy97CZVOx53
bN0+O2b2eUPr1qsuj/I3GWZ7PsK+QSwRZUoAcm6g3nqZh44oObpiaaRVIWvAWi3e
Q5tx0NZqVklCblSw9tWjZhWMUM2GbSrUfYpNhlqRn8utFJNZvwiJ24I9/NKHBLt+
lxVH9jpyiT3+SzQzxXu4bfe8FJsoAndoljfspTDaD3fgfxxW51zDupk7Vtc4V1SY
LucgfBsazxEeoXZBf+mZr7murfiFhIuWp0MfozgcD4nj4Yw1C9+F8OJqBNzoSFvo
aMUFJ5kqqojZt5LScLJrqwyI9bv8Xun25tMtAAJAHDT/koiYfX0bMpf/K/ZdjLRI
dKEEHmhGKHjd0eU51BBySf3OF6vpozeTJWwDBHZPA/Q0mgCTxNQ2DHVZymM2AbIE
sZXp7H+6WL9Dxnx4fGV/oUNUp9Ul5DZBixrmIuU3nnShFuXGYyaasmUobJe/JL+S
3dH1lJXUhKRDUBzsKawC/vI5qs89WEzf2AWjBhk3rpgHXH/GLFrcUb5MINrYbHmK
U9pF61ucjPZ9bf6QC1HntaaOL5m8oWdepsaAShkR/I0KYnxDmlXgOaj+3V8mUFqX
VHJAaN2Fzv8hJsC6lWrB0qh2UTTwSMfqtVNECOcAHUl7wNxl3+lzVPAs6+OTtzDd
jyw3AgMBAAGjgc0wgcowCQYDVR0TBAIwADAsBglghkgBhvhCAQ0EHxYdT3BlblNT
TCBHZW5lcmF0ZWQgQ2VydGlmaWNhdGUwHQYDVR0OBBYEFC3LglYRCcNq10F2s7D/
sSGYTznSMHAGA1UdIwRpMGehWqRYMFYxCzAJBgNVBAYTAlVTMQswCQYDVQQIDAJV
VDEMMAoGA1UEBwwDU0xDMQ8wDQYDVQQKDAZVIG9mIFUxDDAKBgNVBAsMA01TRDEN
MAsGA1UEAwwENjAxNIIJAJ+IKJ3Mej1iMA0GCSqGSIb3DQEBBAUAA4ICAQA4EQeI
452gSZ3cPB0jjC6dWVnPVfYvPG09eRK9RI/+oueb5J0H+64UmHEeV17ola/jMXhc
Ojth6GYBNSAAlE7JEb70Vms5RUAhQU2yyiM4EOQlAXJHDRGxT/MkixOeAyMfXdIK
LyMuUULZT47GDos0a4EuEptC1BQe8QpyBWj89u/ewu4JTD/7l8Ou+10xe24/iEEi
RKXCuqIVrIMqwJ/rZ9ZFfJou43JGhFZlHO9kxlGFBlRznSA1oRUCNWp1cW9NZChM
MzqYlIo5x8g9qKldcnTTrfitWhLtn0F8qt53k9VHv8A2cuqZ7hACWf68RJV/0kmF
JmxAW6GpiFb0isA+NgCbJdngtdlGBqHTxoTf8A7W84r7MwjrZPbJQbKZzvqzrC/T
58u0vDEgheE7MdYVPFk7/Liz3S8MG948WbI6Xsd7EdtJ+p41lVlQJ5KB+vi6oJ0E
IEy0gKU1C7tzefl0yed7k3Yh7BbYVfs5IM930bg3Kr+zvamLixlcgEHwtX5BXzAS
knXm+te9wixsFcwio6I3yJ1ILa1VQj8Kns21WaR7qFtha/clUnFAx090W9JzTh9M
JzAs+3G8IC9Pqz/7yqGYjscJ7HdzfUzummNenteGjjERp4RWQRmdi2eCPvDmbMza
iBV3GoZxeJXowJvPZ+COLTo1Jn2mGoTcXiTLTw==
-----END CERTIFICATE-----
