Certificate:
    Data:
        Version: 3 (0x2)
        Serial Number: 4097 (0x1001)
    Signature Algorithm: md5WithRSAEncryption
        Issuer: C=US, ST=Utah, L=Salt Lake City, O=MSD, OU=Certificate Authority, CN=My Root CA/emailAddress=u6033375@gcloud.utah.edu
        Validity
            Not Before: Mar 26 17:23:33 2025 GMT
            Not After : Mar 26 17:23:33 2026 GMT
        Subject: C=US, ST=Utah, O=MSD, OU=Certificate Authority, CN=myserver.local/emailAddress=u6033375@gcloud.utah.edu
        Subject Public Key Info:
            Public Key Algorithm: rsaEncryption
                RSA Public-Key: (4096 bit)
                Modulus:
                    00:c0:a3:2c:c3:f3:40:d7:b1:39:f7:89:cc:63:8a:
                    f1:5c:6a:51:e6:2d:27:ec:4c:cb:8f:ee:96:79:32:
                    cf:29:fa:46:06:d4:45:c8:d6:12:64:19:b4:74:91:
                    88:94:35:dd:5a:59:07:c9:70:f1:3c:df:54:fb:05:
                    4b:72:c0:cb:42:ad:aa:e2:60:01:33:43:1e:e3:df:
                    3e:d7:07:61:b3:79:41:2a:40:c5:e9:a0:2e:ed:b0:
                    bc:6a:3f:b9:ad:40:18:ab:2a:00:66:d9:d0:51:c2:
                    a0:39:68:43:f7:a4:ec:b5:a5:ff:c7:54:2c:16:f0:
                    f6:d2:82:de:00:da:54:8c:17:09:97:2c:37:e0:62:
                    88:7e:2a:d9:15:3e:d6:f7:8d:96:66:6e:1e:e0:03:
                    00:d1:0b:2f:45:26:1c:b8:1e:8e:9f:47:c0:cb:d5:
                    61:f7:eb:7b:75:4d:ea:f5:53:d7:a7:c3:a7:57:50:
                    b1:c5:0f:4c:b3:96:71:21:f5:22:e9:00:50:2e:20:
                    fa:fb:ae:f3:f6:47:27:ef:05:dd:7c:6c:22:2c:db:
                    25:98:ad:d2:34:ff:f6:62:6d:bc:f6:9e:57:b8:5e:
                    d6:16:02:eb:c3:a0:be:cf:d2:80:ed:9c:de:32:ec:
                    08:5f:5d:0a:c4:c9:7b:0c:38:bc:b4:26:87:b5:64:
                    79:a9:92:e7:e0:2e:1a:5f:92:e1:ac:30:34:66:94:
                    4a:5c:7b:b4:45:67:50:85:da:53:1c:97:e8:69:9c:
                    93:a8:ea:93:40:e9:bf:51:a0:e7:9f:1b:79:51:ed:
                    a3:a4:c7:dd:af:25:4d:b3:42:f8:c3:5d:2e:df:47:
                    86:aa:1c:5d:a0:13:47:d5:a5:9c:be:bd:42:69:1d:
                    21:86:b1:d0:b8:34:55:9e:1f:53:03:c7:d2:27:10:
                    9b:4f:62:28:7f:b9:57:32:7a:1e:d8:4c:23:60:4b:
                    68:1b:73:6e:4a:2a:37:d9:3c:ac:d8:6b:fb:a2:a7:
                    2c:29:55:8c:55:36:e3:d9:2f:05:7d:39:4c:82:47:
                    e1:78:ef:93:c5:62:97:6d:f5:ae:20:d5:d6:69:b8:
                    da:8c:4b:56:ea:54:bd:36:80:e2:25:b8:4f:6b:44:
                    6e:04:af:e4:2b:e0:e4:8d:70:a0:40:ea:6e:7e:6c:
                    57:ce:55:ee:b8:e2:01:5a:e4:9f:92:7e:63:6c:17:
                    5a:be:a8:5d:89:49:0f:5a:37:ec:2d:a0:98:25:38:
                    29:2e:b2:9a:96:5f:15:1c:db:7c:53:ea:78:ce:c1:
                    fb:43:3c:f7:d5:0c:dd:36:46:26:65:e9:b9:82:ea:
                    6d:fc:b5:1b:eb:82:03:28:7e:90:16:a5:de:5e:ff:
                    1e:96:1d
                Exponent: 65537 (0x10001)
        X509v3 extensions:
            X509v3 Basic Constraints: 
                CA:FALSE
            Netscape Comment: 
                OpenSSL Generated Certificate
            X509v3 Subject Key Identifier: 
                86:57:60:B4:4D:A2:33:2E:FB:2C:A2:3A:9E:B8:26:89:CD:AA:63:1D
            X509v3 Authority Key Identifier: 
                DirName:/C=US/ST=Utah/L=Salt Lake City/O=MSD/OU=Certificate Authority/CN=My Root CA/emailAddress=u6033375@gcloud.utah.edu
                serial:FD:4F:80:24:A8:F9:62:28

    Signature Algorithm: md5WithRSAEncryption
         25:e7:9a:ae:22:1c:b1:a7:81:f6:71:00:15:48:f7:8f:6b:13:
         52:a2:b6:3d:59:3f:00:7f:c4:20:ac:0e:3c:39:f8:e8:83:29:
         d6:5a:18:78:29:36:cb:2d:bf:1b:d1:2d:65:52:1b:5f:9a:6d:
         b1:e5:7c:91:a4:9e:d1:83:b3:38:ab:83:8b:ab:ce:23:4f:2f:
         a1:38:a7:61:9f:5b:7a:2b:00:57:50:c4:62:28:97:90:56:c7:
         08:88:f6:bc:59:74:46:39:53:e0:e8:ef:53:dc:f2:31:85:a3:
         f5:6d:73:cc:57:a5:e1:b6:f2:ac:f0:9b:40:0b:89:f4:d1:21:
         07:15:ff:b5:1d:3d:68:62:be:0f:b7:07:04:9e:9e:db:40:97:
         c5:f4:36:0f:3b:ac:13:a5:c2:38:0a:70:fb:bb:d5:4d:27:0e:
         d9:28:dd:89:06:00:55:17:d2:9d:88:a7:fd:dc:14:b9:64:f6:
         ce:a1:b5:20:a7:ce:8f:b9:c9:fe:ed:07:7a:55:00:3c:d8:91:
         eb:83:8b:ee:1c:69:d4:88:c1:97:c9:91:04:94:fd:c4:7a:83:
         3b:ef:25:df:ae:f3:a2:ae:60:b5:38:6a:34:f9:69:b8:48:1f:
         78:6f:7b:3d:b3:4e:3c:2f:83:53:63:a0:70:40:93:8f:6d:68:
         b6:3b:5b:66:ea:1e:28:19:f4:ec:8b:f7:d2:1e:d0:b7:9a:56:
         10:52:82:52:c0:cf:21:0f:13:22:a3:00:fd:be:df:fc:7a:00:
         30:a5:38:ec:34:95:d2:a0:6a:3b:8d:b2:14:b6:c8:f1:d8:f3:
         6e:cc:92:d9:f3:72:93:4d:5a:70:b8:c2:bd:7f:f4:c0:b4:f8:
         92:36:5c:e8:b4:5d:9c:64:02:3b:c1:77:73:ee:5c:41:9d:b3:
         06:5b:ea:89:69:74:82:7a:8b:78:3e:f0:cf:c1:a6:56:89:26:
         a7:f7:bf:e6:8e:f5:54:bb:ab:c0:8a:03:b2:4c:68:7c:48:41:
         3c:a8:4f:74:5d:d4:49:0d:79:5c:ac:81:7a:e7:a1:5a:cb:4d:
         d4:97:c4:5b:2e:fa:13:c0:57:3a:0c:51:e2:72:09:bf:fa:31:
         1e:6d:88:47:c1:5c:91:6a:6e:20:d6:05:72:87:b7:b1:3e:54:
         52:48:3f:42:3e:67:72:b2:28:14:06:70:29:9b:41:ab:22:bc:
         f2:0a:a3:65:15:b0:da:f5:2f:7c:1d:1b:d3:c9:52:a6:10:54:
         ff:47:16:65:18:02:c1:35:ae:4e:0d:e6:95:89:25:de:99:56:
         11:73:16:90:88:04:3a:92:ce:66:31:06:b6:5c:28:bc:3a:d7:
         e4:61:13:52:76:70:01:73
-----BEGIN CERTIFICATE-----
MIIGzDCCBLSgAwIBAgICEAEwDQYJKoZIhvcNAQEEBQAwgaExCzAJBgNVBAYTAlVT
MQ0wCwYDVQQIDARVdGFoMRcwFQYDVQQHDA5TYWx0IExha2UgQ2l0eTEMMAoGA1UE
CgwDTVNEMR4wHAYDVQQLDBVDZXJ0aWZpY2F0ZSBBdXRob3JpdHkxEzARBgNVBAMM
Ck15IFJvb3QgQ0ExJzAlBgkqhkiG9w0BCQEWGHU2MDMzMzc1QGdjbG91ZC51dGFo
LmVkdTAeFw0yNTAzMjYxNzIzMzNaFw0yNjAzMjYxNzIzMzNaMIGMMQswCQYDVQQG
EwJVUzENMAsGA1UECAwEVXRhaDEMMAoGA1UECgwDTVNEMR4wHAYDVQQLDBVDZXJ0
aWZpY2F0ZSBBdXRob3JpdHkxFzAVBgNVBAMMDm15c2VydmVyLmxvY2FsMScwJQYJ
KoZIhvcNAQkBFhh1NjAzMzM3NUBnY2xvdWQudXRhaC5lZHUwggIiMA0GCSqGSIb3
DQEBAQUAA4ICDwAwggIKAoICAQDAoyzD80DXsTn3icxjivFcalHmLSfsTMuP7pZ5
Ms8p+kYG1EXI1hJkGbR0kYiUNd1aWQfJcPE831T7BUtywMtCrariYAEzQx7j3z7X
B2GzeUEqQMXpoC7tsLxqP7mtQBirKgBm2dBRwqA5aEP3pOy1pf/HVCwW8PbSgt4A
2lSMFwmXLDfgYoh+KtkVPtb3jZZmbh7gAwDRCy9FJhy4Ho6fR8DL1WH363t1Ter1
U9enw6dXULHFD0yzlnEh9SLpAFAuIPr7rvP2RyfvBd18bCIs2yWYrdI0//Zibbz2
nle4XtYWAuvDoL7P0oDtnN4y7AhfXQrEyXsMOLy0Joe1ZHmpkufgLhpfkuGsMDRm
lEpce7RFZ1CF2lMcl+hpnJOo6pNA6b9RoOefG3lR7aOkx92vJU2zQvjDXS7fR4aq
HF2gE0fVpZy+vUJpHSGGsdC4NFWeH1MDx9InEJtPYih/uVcyeh7YTCNgS2gbc25K
KjfZPKzYa/uipywpVYxVNuPZLwV9OUyCR+F475PFYpdt9a4g1dZpuNqMS1bqVL02
gOIluE9rRG4Er+Qr4OSNcKBA6m5+bFfOVe644gFa5J+SfmNsF1q+qF2JSQ9aN+wt
oJglOCkuspqWXxUc23xT6njOwftDPPfVDN02RiZl6bmC6m38tRvrggMofpAWpd5e
/x6WHQIDAQABo4IBHzCCARswCQYDVR0TBAIwADAsBglghkgBhvhCAQ0EHxYdT3Bl
blNTTCBHZW5lcmF0ZWQgQ2VydGlmaWNhdGUwHQYDVR0OBBYEFIZXYLRNojMu+yyi
Op64JonNqmMdMIHABgNVHSMEgbgwgbWhgaekgaQwgaExCzAJBgNVBAYTAlVTMQ0w
CwYDVQQIDARVdGFoMRcwFQYDVQQHDA5TYWx0IExha2UgQ2l0eTEMMAoGA1UECgwD
TVNEMR4wHAYDVQQLDBVDZXJ0aWZpY2F0ZSBBdXRob3JpdHkxEzARBgNVBAMMCk15
IFJvb3QgQ0ExJzAlBgkqhkiG9w0BCQEWGHU2MDMzMzc1QGdjbG91ZC51dGFoLmVk
dYIJAP1PgCSo+WIoMA0GCSqGSIb3DQEBBAUAA4ICAQAl55quIhyxp4H2cQAVSPeP
axNSorY9WT8Af8QgrA48OfjogynWWhh4KTbLLb8b0S1lUhtfmm2x5XyRpJ7Rg7M4
q4OLq84jTy+hOKdhn1t6KwBXUMRiKJeQVscIiPa8WXRGOVPg6O9T3PIxhaP1bXPM
V6XhtvKs8JtAC4n00SEHFf+1HT1oYr4PtwcEnp7bQJfF9DYPO6wTpcI4CnD7u9VN
Jw7ZKN2JBgBVF9KdiKf93BS5ZPbOobUgp86Pucn+7Qd6VQA82JHrg4vuHGnUiMGX
yZEElP3EeoM77yXfrvOirmC1OGo0+Wm4SB94b3s9s048L4NTY6BwQJOPbWi2O1tm
6h4oGfTsi/fSHtC3mlYQUoJSwM8hDxMiowD9vt/8egAwpTjsNJXSoGo7jbIUtsjx
2PNuzJLZ83KTTVpwuMK9f/TAtPiSNlzotF2cZAI7wXdz7lxBnbMGW+qJaXSCeot4
PvDPwaZWiSan97/mjvVUu6vAigOyTGh8SEE8qE90XdRJDXlcrIF656Fay03Ul8Rb
LvoTwFc6DFHicgm/+jEebYhHwVyRam4g1gVyh7exPlRSSD9CPmdysigUBnApm0Gr
IrzyCqNlFbDa9S98HRvTyVKmEFT/RxZlGALBNa5ODeaViSXemVYRcxaQiAQ6ks5m
MQa2XCi8OtfkYRNSdnABcw==
-----END CERTIFICATE-----
